target datalayout = "e-m:e-p270:32:32-p271:32:32-p272:64:64-i64:64-i128:128-f80:128-n8:16:32:64-S128"
target triple = "x86_64-pc-linux-gnu"

%struct.H5FD_multi_t = type { %struct.H5FD_t, %struct.H5FD_multi_fapl_t, [7 x i64], [7 x ptr], [7 x i64], i32, ptr }
%struct.H5FD_t = type { i64, ptr, i64, i32, i64, i64, i64, i64, i64, i8 }
%struct.H5FD_multi_fapl_t = type { [7 x i32], [7 x i64], [7 x ptr], [7 x i64], i8 }

; Function Attrs: nounwind uwtable
define internal i32 @H5FD_multi_free(ptr noundef %0, i32 noundef %1, i64 noundef %2, i64 noundef %3, i64 noundef %4) #0 {
  %6 = alloca ptr, align 8
  %7 = alloca i32, align 4
  %8 = alloca i64, align 8
  %9 = alloca i64, align 8
  %10 = alloca i64, align 8
  %11 = alloca ptr, align 8
  %12 = alloca i32, align 4
  store ptr %0, ptr %6, align 8, !tbaa !3
  store i32 %1, ptr %7, align 4, !tbaa !10
  store i64 %2, ptr %8, align 8, !tbaa !12
  store i64 %3, ptr %9, align 8, !tbaa !12
  store i64 %4, ptr %10, align 8, !tbaa !12
  call void @llvm.lifetime.start.p0(i64 8, ptr %11) #9
  %13 = load ptr, ptr %6, align 8, !tbaa !3
  store ptr %13, ptr %11, align 8, !tbaa !8
  call void @llvm.lifetime.start.p0(i64 4, ptr %12) #9
  %14 = call i32 @H5Eclear2(i64 noundef 0)
  %15 = load ptr, ptr %11, align 8, !tbaa !8
  %16 = getelementptr inbounds nuw %struct.H5FD_multi_t, ptr %15, i32 0, i32 1
  %17 = getelementptr inbounds nuw %struct.H5FD_multi_fapl_t, ptr %16, i32 0, i32 0
  %18 = load i32, ptr %7, align 4, !tbaa !10
  %19 = sext i32 %18 to i64
  %20 = getelementptr inbounds [7 x i32], ptr %17, i64 0, i64 %19
  %21 = load i32, ptr %20, align 4, !tbaa !10
  store i32 %21, ptr %12, align 4, !tbaa !10
  %22 = load i32, ptr %12, align 4, !tbaa !10
  %23 = icmp eq i32 0, %22
  br i1 %23, label %24, label %26

24:                                               ; preds = %5
  %25 = load i32, ptr %7, align 4, !tbaa !10
  store i32 %25, ptr %12, align 4, !tbaa !10
  br label %26

26:                                               ; preds = %24, %5
  %27 = load ptr, ptr %11, align 8, !tbaa !8
  %28 = getelementptr inbounds nuw %struct.H5FD_multi_t, ptr %27, i32 0, i32 3
  %29 = load i32, ptr %12, align 4, !tbaa !10
  %30 = sext i32 %29 to i64
  %31 = getelementptr inbounds [7 x ptr], ptr %28, i64 0, i64 %30
  %32 = load ptr, ptr %31, align 8, !tbaa !3
  %33 = load i32, ptr %12, align 4, !tbaa !10
  %34 = load i64, ptr %8, align 8, !tbaa !12
  %35 = load i64, ptr %9, align 8, !tbaa !12
  %36 = load ptr, ptr %11, align 8, !tbaa !8
  %37 = getelementptr inbounds nuw %struct.H5FD_multi_t, ptr %36, i32 0, i32 1
  %38 = getelementptr inbounds nuw %struct.H5FD_multi_fapl_t, ptr %37, i32 0, i32 3
  %39 = load i32, ptr %12, align 4, !tbaa !10
  %40 = sext i32 %39 to i64
  %41 = getelementptr inbounds [7 x i64], ptr %38, i64 0, i64 %40
  %42 = load i64, ptr %41, align 8, !tbaa !12
  %43 = sub i64 %35, %42
  %44 = load i64, ptr %10, align 8, !tbaa !12
  %45 = call i32 @H5FDfree(ptr noundef %32, i32 noundef %33, i64 noundef %34, i64 noundef %43, i64 noundef %44)
  call void @llvm.lifetime.end.p0(i64 4, ptr %12) #9
  call void @llvm.lifetime.end.p0(i64 8, ptr %11) #9
  ret i32 %45
}