; Function Attrs: nounwind uwtable
define internal i32 @H5FD_multi_free(ptr noundef readonly captures(none) %0, i32 noundef %1, i64 noundef %2, i64 noundef %3, i64 noundef %4) #0 {
  %6 = tail call i32 @H5Eclear2(i64 noundef 0) #15
  %7 = getelementptr inbounds nuw i8, ptr %0, i64 80
  %8 = sext i32 %1 to i64
  %9 = getelementptr inbounds [7 x i32], ptr %7, i64 0, i64 %8
  %10 = load i32, ptr %9, align 4, !tbaa !3
  %11 = icmp eq i32 %10, 0
  %spec.select = select i1 %11, i32 %1, i32 %10
  %12 = getelementptr inbounds nuw i8, ptr %0, i64 344
  %13 = sext i32 %spec.select to i64
  %14 = getelementptr inbounds [7 x ptr], ptr %12, i64 0, i64 %13
  %15 = load ptr, ptr %14, align 8, !tbaa !15
  %16 = getelementptr inbounds nuw i8, ptr %0, i64 224
  %17 = getelementptr inbounds [7 x i64], ptr %16, i64 0, i64 %13
  %18 = load i64, ptr %17, align 8, !tbaa !23
  %19 = sub i64 %3, %18
  %20 = tail call i32 @H5FDfree(ptr noundef %15, i32 noundef %spec.select, i64 noundef %2, i64 noundef %19, i64 noundef %4) #15
  ret i32 %20
}